Certificate:
    Data:
        Version: 3 (0x2)
        Serial Number: 2 (0x2)
    Signature Algorithm: sha1WithRSAEncryption
        Issuer: C=CN, ST=SC, L=MianYang, O=Loco, OU=CA, CN=CA/emailAddress=ca@loco.org
        Validity
            Not Before: Dec 28 13:43:32 2012 GMT
            Not After : Dec 28 13:43:32 2013 GMT
        Subject: C=CN, ST=SC, O=Loco, OU=rinet, CN=cli/emailAddress=rinet_cli@loco.org
        Subject Public Key Info:
            Public Key Algorithm: rsaEncryption
                Public-Key: (4096 bit)
                Modulus:
                    00:a1:77:d9:86:77:88:72:d1:cb:39:c2:9d:78:8f:
                    e9:fd:67:be:1b:e0:75:ca:28:4d:1f:74:c0:d5:66:
                    bd:1b:7a:30:f2:10:55:5c:98:07:fe:ce:8e:34:dd:
                    c6:cb:fb:3d:78:ac:da:89:8e:5d:42:77:21:81:8b:
                    53:9c:fb:18:78:52:42:21:8f:cf:0e:5e:78:a3:4f:
                    e4:8f:a6:32:a8:54:e2:e3:84:b9:d3:cc:94:f1:a1:
                    d2:3e:0d:dd:b6:5c:12:c5:30:8d:c8:c8:78:6d:5a:
                    d1:64:01:e8:4d:0b:df:4f:e3:11:c3:b7:69:ef:ed:
                    23:94:d8:0e:48:24:59:4d:17:50:a7:3e:7c:46:80:
                    df:a5:34:99:39:2d:38:4d:8b:a8:3e:b4:15:59:8c:
                    1a:5f:77:cb:8e:1b:b4:74:36:13:53:5a:11:85:b8:
                    d1:d4:c2:5a:5f:18:85:7d:1f:1f:84:ba:40:13:e2:
                    9c:2d:37:1b:47:8f:21:eb:e0:2d:e8:91:a9:53:65:
                    fe:f1:c1:4b:ed:10:1f:a2:b4:55:0b:b3:58:f9:02:
                    08:93:b9:6a:5f:ff:d6:fd:43:ab:b7:26:38:b5:89:
                    5d:05:f2:06:b4:b6:b4:1d:c0:56:1a:16:ea:78:63:
                    2c:84:e4:f4:6a:a2:ef:65:57:54:00:74:74:5d:6e:
                    c6:84:6a:a9:2b:22:fa:86:11:d3:2f:7f:df:0b:be:
                    58:5a:af:cc:9e:12:e9:ab:42:5d:83:a8:59:52:be:
                    56:53:68:ec:ca:cc:e2:91:5e:8c:dc:4b:00:8a:1e:
                    78:b0:0c:ad:0d:99:02:6b:61:9f:ab:c7:b4:60:d0:
                    1d:53:f9:c0:cb:9c:e2:f1:d1:4e:83:cb:c7:bb:fc:
                    75:3b:bb:d8:fc:21:aa:76:99:82:b2:4c:03:c3:2f:
                    44:28:54:2c:ed:b8:54:19:0c:6e:15:c5:3b:ce:7d:
                    d8:10:96:1a:9f:c1:de:17:2f:19:4b:c6:b1:3f:4d:
                    e3:a7:fe:21:17:6e:18:6a:e8:8e:5e:40:22:e4:93:
                    16:48:e8:14:97:50:05:5d:f8:4b:89:4a:ee:58:e3:
                    f3:73:c4:16:be:45:ae:dc:4a:e6:d2:a4:77:0e:37:
                    98:ce:35:3f:b2:85:ba:2c:9f:cc:4f:c0:1d:33:1e:
                    bf:5c:1f:e6:fd:0b:c0:50:77:31:49:6e:2f:b1:a8:
                    ea:7c:25:7d:96:1a:8e:2f:80:01:f0:ca:89:17:56:
                    b0:80:96:39:e6:ed:7d:f7:00:22:66:a7:0a:24:79:
                    d6:5a:30:8a:df:be:48:a9:7d:31:63:3c:eb:18:58:
                    cf:b4:97:f2:e2:40:a6:6b:17:8b:68:1f:b0:01:c8:
                    d2:64:d7
                Exponent: 65537 (0x10001)
        X509v3 extensions:
            X509v3 Basic Constraints: 
                CA:FALSE
            Netscape Comment: 
                OpenSSL Generated Certificate
            X509v3 Subject Key Identifier: 
                08:89:57:91:C7:6A:E4:65:AA:66:35:16:B2:E6:88:E7:FF:47:4F:5B
            X509v3 Authority Key Identifier: 
                keyid:F3:25:BF:CC:3A:B3:44:12:3A:6F:40:4E:8A:A3:9B:57:7E:B6:D5:91

    Signature Algorithm: sha1WithRSAEncryption
         49:a3:36:b3:db:b6:55:1d:47:1b:be:47:3f:fc:e4:1f:45:39:
         1f:29:95:93:08:ec:64:b1:b4:c3:ab:d4:33:81:85:2b:f6:8a:
         8d:9a:dc:33:89:92:98:02:73:ba:9c:69:28:55:d9:cd:10:72:
         6b:dc:5a:35:82:f0:62:46:08:4d:3a:a8:a9:2d:b1:50:5b:82:
         e3:75:0c:cd:c3:68:a0:aa:00:66:85:40:08:68:5d:95:b0:a2:
         e7:89:07:2e:4d:a7:04:46:db:41:d9:e3:53:b9:54:30:e4:6e:
         b6:62:7b:5b:0d:6f:e5:a9:b3:a0:36:63:18:1c:eb:ea:77:6d:
         5e:54:d1:ed:38:96:d9:09:2b:00:41:2e:1b:33:dd:59:33:e1:
         59:c1:a1:45:24:c8:17:fe:92:af:74:2f:bf:4c:03:03:66:87:
         25:d9:1a:55:dd:ea:06:96:f8:fe:06:46:e3:78:e7:49:2c:ea:
         a5:ce:e7:79:f6:51:2a:e1:5b:cb:21:5e:43:a5:bb:e3:89:ad:
         3e:4b:35:d6:fc:66:8d:af:ed:7f:2d:a2:b2:58:dd:f8:76:bf:
         ed:82:74:31:be:68:db:44:13:86:e0:ed:0d:fb:01:f6:94:ed:
         c0:7a:64:a8:ad:e3:62:9d:ef:cc:ec:f7:e5:cc:46:23:df:9a:
         d5:50:9f:4b:e2:6f:fc:f3:5a:3d:2f:66:74:e2:c1:4e:b3:7d:
         ff:2e:67:1f:ab:f6:8f:f7:f5:f0:f5:1d:11:32:25:96:86:ea:
         3c:c2:48:28:72:82:7b:13:f5:fb:6e:d9:1e:f5:96:ed:b7:cf:
         1e:a2:4a:de:0c:75:05:7b:e7:b0:7a:9c:3f:86:f4:e5:ec:a9:
         87:e8:fb:71:35:35:01:44:24:8f:da:51:cf:bf:cc:3b:7b:d0:
         52:b2:7d:62:a5:04:61:7b:9b:7e:8a:1b:f2:c2:1b:b9:b6:55:
         e8:b0:ec:db:49:a3:cf:3f:66:16:73:f4:89:06:09:d2:e9:da:
         7f:2b:f1:bc:e8:5c:48:8c:92:cf:65:9f:95:e1:7e:bb:33:80:
         e8:a5:e3:b5:bf:33:37:24:4d:65:9e:d8:d6:00:ad:9c:ae:3f:
         27:72:c7:c2:15:c3:41:fe:b7:67:a3:c3:5d:05:7e:11:8d:d3:
         99:15:d0:2b:79:45:56:55:93:29:2a:f7:7c:0b:3a:e4:40:24:
         5e:35:67:a8:bf:8a:0c:25:76:5d:ed:c4:af:8f:f9:01:79:81:
         99:70:31:26:a1:fa:cf:58:c0:1c:54:18:5f:29:3e:79:37:4d:
         a5:26:e0:15:74:bc:14:0d:19:2c:1b:11:94:51:8a:0f:39:ee:
         08:80:0e:49:9f:4d:a4:d6
-----BEGIN CERTIFICATE-----
MIIF0jCCA7qgAwIBAgIBAjANBgkqhkiG9w0BAQUFADByMQswCQYDVQQGEwJDTjEL
MAkGA1UECAwCU0MxETAPBgNVBAcMCE1pYW5ZYW5nMQ0wCwYDVQQKDARMb2NvMQsw
CQYDVQQLDAJDQTELMAkGA1UEAwwCQ0ExGjAYBgkqhkiG9w0BCQEWC2NhQGxvY28u
b3JnMB4XDTEyMTIyODEzNDMzMloXDTEzMTIyODEzNDMzMlowajELMAkGA1UEBhMC
Q04xCzAJBgNVBAgMAlNDMQ0wCwYDVQQKDARMb2NvMQ4wDAYDVQQLDAVyaW5ldDEM
MAoGA1UEAwwDY2xpMSEwHwYJKoZIhvcNAQkBFhJyaW5ldF9jbGlAbG9jby5vcmcw
ggIiMA0GCSqGSIb3DQEBAQUAA4ICDwAwggIKAoICAQChd9mGd4hy0cs5wp14j+n9
Z74b4HXKKE0fdMDVZr0bejDyEFVcmAf+zo403cbL+z14rNqJjl1CdyGBi1Oc+xh4
UkIhj88OXnijT+SPpjKoVOLjhLnTzJTxodI+Dd22XBLFMI3IyHhtWtFkAehNC99P
4xHDt2nv7SOU2A5IJFlNF1CnPnxGgN+lNJk5LThNi6g+tBVZjBpfd8uOG7R0NhNT
WhGFuNHUwlpfGIV9Hx+EukAT4pwtNxtHjyHr4C3okalTZf7xwUvtEB+itFULs1j5
AgiTuWpf/9b9Q6u3Jji1iV0F8ga0trQdwFYaFup4YyyE5PRqou9lV1QAdHRdbsaE
aqkrIvqGEdMvf98Lvlhar8yeEumrQl2DqFlSvlZTaOzKzOKRXozcSwCKHniwDK0N
mQJrYZ+rx7Rg0B1T+cDLnOLx0U6Dy8e7/HU7u9j8Iap2mYKyTAPDL0QoVCztuFQZ
DG4VxTvOfdgQlhqfwd4XLxlLxrE/TeOn/iEXbhhq6I5eQCLkkxZI6BSXUAVd+EuJ
Su5Y4/NzxBa+Ra7cSubSpHcON5jONT+yhbosn8xPwB0zHr9cH+b9C8BQdzFJbi+x
qOp8JX2WGo4vgAHwyokXVrCAljnm7X33ACJmpwokedZaMIrfvkipfTFjPOsYWM+0
l/LiQKZrF4toH7AByNJk1wIDAQABo3sweTAJBgNVHRMEAjAAMCwGCWCGSAGG+EIB
DQQfFh1PcGVuU1NMIEdlbmVyYXRlZCBDZXJ0aWZpY2F0ZTAdBgNVHQ4EFgQUCIlX
kcdq5GWqZjUWsuaI5/9HT1swHwYDVR0jBBgwFoAU8yW/zDqzRBI6b0BOiqObV362
1ZEwDQYJKoZIhvcNAQEFBQADggIBAEmjNrPbtlUdRxu+Rz/85B9FOR8plZMI7GSx
tMOr1DOBhSv2io2a3DOJkpgCc7qcaShV2c0QcmvcWjWC8GJGCE06qKktsVBbguN1
DM3DaKCqAGaFQAhoXZWwoueJBy5NpwRG20HZ41O5VDDkbrZie1sNb+Wps6A2Yxgc
6+p3bV5U0e04ltkJKwBBLhsz3Vkz4VnBoUUkyBf+kq90L79MAwNmhyXZGlXd6gaW
+P4GRuN450ks6qXO53n2USrhW8shXkOlu+OJrT5LNdb8Zo2v7X8torJY3fh2v+2C
dDG+aNtEE4bg7Q37AfaU7cB6ZKit42Kd78zs9+XMRiPfmtVQn0vib/zzWj0vZnTi
wU6zff8uZx+r9o/39fD1HREyJZaG6jzCSChygnsT9ftu2R71lu23zx6iSt4MdQV7
57B6nD+G9OXsqYfo+3E1NQFEJI/aUc+/zDt70FKyfWKlBGF7m36KG/LCG7m2Veiw
7NtJo88/ZhZz9IkGCdLp2n8r8bzoXEiMks9ln5XhfrszgOil47W/MzckTWWe2NYA
rZyuPydyx8IVw0H+t2ejw10FfhGN05kV0Ct5RVZVkykq93wLOuRAJF41Z6i/igwl
dl3txK+P+QF5gZlwMSah+s9YwBxUGF8pPnk3TaUm4BV0vBQNGSwbEZRRig857giA
DkmfTaTW
-----END CERTIFICATE-----
