Certificate:
    Data:
        Version: 3 (0x2)
        Serial Number: 1 (0x1)
    Signature Algorithm: sha1WithRSAEncryption
        Issuer: C=CN, ST=SC, L=MianYang, O=Loco, OU=CA, CN=CA/emailAddress=ca@loco.org
        Validity
            Not Before: Dec 28 13:40:25 2012 GMT
            Not After : Dec 28 13:40:25 2013 GMT
        Subject: C=CN, ST=SC, O=Loco, OU=rinet, CN=manager/emailAddress=rinet_mgr@loco.org
        Subject Public Key Info:
            Public Key Algorithm: rsaEncryption
                Public-Key: (4096 bit)
                Modulus:
                    00:d0:e3:70:12:0e:ce:b9:8a:a4:bc:59:a5:5c:01:
                    cf:e0:4f:4a:7c:a6:60:a7:89:de:59:89:63:77:70:
                    6c:c8:e8:40:23:6b:23:9e:f3:ca:26:33:5e:67:d7:
                    ac:f7:49:9b:02:c7:52:b7:97:04:7e:c7:35:ea:ab:
                    48:f1:21:4e:8d:09:60:ab:53:1a:7c:67:6c:45:9c:
                    f8:1e:1b:02:2b:0e:79:b0:f7:78:83:8e:2a:1f:09:
                    33:20:49:77:e0:aa:3b:e6:5d:ec:83:79:b1:2d:18:
                    1e:cb:d8:b7:c9:da:d0:f5:d0:09:f5:10:12:b9:10:
                    f4:d9:d9:14:59:55:53:e7:33:b5:10:26:12:5a:d2:
                    9d:e2:d4:f9:f2:af:8a:f2:cf:8b:61:36:0a:93:f5:
                    91:19:4f:7f:5b:3d:5d:18:b1:af:1b:9a:9e:3f:ea:
                    52:f1:95:9f:13:96:3f:7a:5d:e4:3f:bd:04:b8:f0:
                    4f:a2:5e:23:64:2a:d7:f7:02:4f:4f:c4:9f:0d:2c:
                    ab:3d:9a:5b:c1:00:4d:95:04:98:c5:77:a4:1a:03:
                    89:57:4b:80:78:19:c4:5b:b5:5e:5c:71:39:d9:9c:
                    8b:88:3b:2f:d0:9a:fa:e7:ea:90:f5:bc:ad:64:1a:
                    d2:d3:27:1e:fa:f5:b6:e9:40:dc:92:f2:42:0e:bf:
                    0e:56:86:62:56:6e:94:53:e7:09:18:55:bb:c2:fd:
                    17:94:fe:56:74:21:76:48:3b:72:5b:a8:75:d0:4e:
                    bb:d7:13:4d:d9:bc:5a:95:84:d4:54:5e:52:9b:1e:
                    8e:fa:b1:60:54:93:3e:49:a2:cf:16:22:65:59:12:
                    d9:e1:d4:e7:aa:6b:26:5d:98:69:a5:d7:b3:96:19:
                    b3:40:be:45:7a:50:4a:fa:60:0c:c5:4b:6e:36:e2:
                    a0:98:7f:93:a4:b0:06:f4:7e:dc:66:af:a3:eb:84:
                    78:90:57:9e:c7:36:da:5d:2f:22:60:e8:3d:4a:c5:
                    61:56:c5:70:35:e8:35:ff:6c:a1:fe:a0:0a:8f:e3:
                    7b:f0:13:5d:94:24:ac:20:5f:38:af:12:72:79:14:
                    e1:26:4f:a5:78:18:f0:07:2d:97:90:9b:c1:f4:1d:
                    30:fe:c0:c8:be:b8:16:e9:c1:43:ef:ca:58:36:2e:
                    9a:b5:97:29:3e:a6:5e:f5:e4:fd:09:ba:84:85:0d:
                    e4:27:7b:f2:de:dc:81:e0:5c:dc:4e:80:c5:90:9b:
                    6b:71:b5:f6:f1:9a:b3:d3:59:8e:f2:28:48:5c:88:
                    d4:5b:53:cb:72:7a:9d:5b:d7:17:c8:8e:3b:27:35:
                    5b:f3:fd:4f:05:6d:4a:9c:61:48:af:ca:58:26:4e:
                    58:0a:d5
                Exponent: 65537 (0x10001)
        X509v3 extensions:
            X509v3 Basic Constraints: 
                CA:FALSE
            Netscape Comment: 
                OpenSSL Generated Certificate
            X509v3 Subject Key Identifier: 
                B1:04:68:54:09:AD:6C:D3:E2:0B:74:2E:18:6F:E3:3F:8F:B7:DC:20
            X509v3 Authority Key Identifier: 
                keyid:F3:25:BF:CC:3A:B3:44:12:3A:6F:40:4E:8A:A3:9B:57:7E:B6:D5:91

    Signature Algorithm: sha1WithRSAEncryption
         52:98:88:1f:19:d9:1f:d0:a5:bc:72:ac:ba:a9:d4:64:6b:93:
         ca:4e:47:ad:4e:c9:e1:2b:00:cb:40:9c:35:6c:a5:c0:99:d3:
         d8:e6:a2:38:a0:f2:df:10:42:0c:00:7f:40:53:2c:6f:45:14:
         dd:20:ee:86:34:b2:14:2c:16:88:64:28:37:b8:04:bf:ab:68:
         c5:e9:44:99:6e:6c:a5:71:7f:ea:af:4b:82:a1:3a:22:41:b7:
         d8:e9:e8:ec:e6:21:37:21:82:cf:d4:84:f9:a3:54:83:d7:81:
         9b:cd:f4:da:18:ff:bc:cc:93:8e:0b:29:69:fc:ae:20:9d:a0:
         14:d0:7d:a8:b0:2a:2b:b2:f5:f2:8f:92:01:1e:9b:da:55:86:
         41:92:37:e2:37:70:98:78:a6:43:d3:5f:87:20:ff:6c:e9:d7:
         fc:be:15:6a:6c:ae:c9:20:46:07:4d:ec:f4:1f:ba:2a:f6:b5:
         d7:e4:45:7d:77:be:ed:f8:92:a0:da:c2:32:49:4a:ef:92:33:
         ba:71:85:62:17:cb:f0:79:47:27:e2:16:f8:5a:1d:fa:26:34:
         71:15:02:f4:e9:44:7b:cb:46:45:4c:19:8d:20:68:5a:6f:19:
         b3:1c:77:bc:9b:f8:91:b1:43:57:76:b5:0f:6f:b7:9a:49:27:
         1a:98:39:40:f7:96:20:9f:ee:9d:60:4c:c6:31:14:db:36:2e:
         35:3a:39:c9:02:01:76:54:5c:e9:1e:3b:f9:e4:c5:d2:b6:d6:
         82:b4:ee:16:ca:4c:96:97:a6:4c:ee:56:59:a8:9d:4b:b8:d5:
         aa:94:e7:f1:1f:14:79:38:86:c7:2b:a5:ee:e8:77:bd:a0:2d:
         05:b1:7c:07:8d:cb:df:7c:a3:b8:66:39:03:0f:27:13:f8:24:
         8e:29:13:5c:52:79:fa:79:07:98:92:b1:69:0f:7c:08:df:10:
         07:22:1d:e2:b7:0c:e4:d6:6d:8c:a3:f9:07:d9:85:c8:de:0d:
         5e:e3:93:db:47:ad:cb:3c:f2:1b:80:0b:dd:58:2a:9f:db:f1:
         82:f6:e1:4d:33:4c:e6:99:f3:9c:39:a3:5a:92:b5:19:45:20:
         ae:d3:46:d7:a1:91:f8:75:2a:d2:c4:81:f2:87:c2:da:4c:9c:
         ac:79:f7:fb:23:1c:44:4b:1e:08:ee:ff:35:19:de:91:c8:2f:
         9b:a4:57:ab:f7:c1:5e:70:01:43:03:ac:f0:a3:03:fa:7f:46:
         8d:38:d3:62:da:c7:c6:21:11:a3:d7:17:2a:88:f8:91:4f:d2:
         bd:63:df:5c:94:26:c5:ee:d8:5b:e5:88:d6:ba:b8:ab:06:ec:
         c3:7a:01:dc:b5:09:df:be
-----BEGIN CERTIFICATE-----
MIIF1jCCA76gAwIBAgIBATANBgkqhkiG9w0BAQUFADByMQswCQYDVQQGEwJDTjEL
MAkGA1UECAwCU0MxETAPBgNVBAcMCE1pYW5ZYW5nMQ0wCwYDVQQKDARMb2NvMQsw
CQYDVQQLDAJDQTELMAkGA1UEAwwCQ0ExGjAYBgkqhkiG9w0BCQEWC2NhQGxvY28u
b3JnMB4XDTEyMTIyODEzNDAyNVoXDTEzMTIyODEzNDAyNVowbjELMAkGA1UEBhMC
Q04xCzAJBgNVBAgMAlNDMQ0wCwYDVQQKDARMb2NvMQ4wDAYDVQQLDAVyaW5ldDEQ
MA4GA1UEAwwHbWFuYWdlcjEhMB8GCSqGSIb3DQEJARYScmluZXRfbWdyQGxvY28u
b3JnMIICIjANBgkqhkiG9w0BAQEFAAOCAg8AMIICCgKCAgEA0ONwEg7OuYqkvFml
XAHP4E9KfKZgp4neWYljd3BsyOhAI2sjnvPKJjNeZ9es90mbAsdSt5cEfsc16qtI
8SFOjQlgq1MafGdsRZz4HhsCKw55sPd4g44qHwkzIEl34Ko75l3sg3mxLRgey9i3
ydrQ9dAJ9RASuRD02dkUWVVT5zO1ECYSWtKd4tT58q+K8s+LYTYKk/WRGU9/Wz1d
GLGvG5qeP+pS8ZWfE5Y/el3kP70EuPBPol4jZCrX9wJPT8SfDSyrPZpbwQBNlQSY
xXekGgOJV0uAeBnEW7VeXHE52ZyLiDsv0Jr65+qQ9bytZBrS0yce+vW26UDckvJC
Dr8OVoZiVm6UU+cJGFW7wv0XlP5WdCF2SDtyW6h10E671xNN2bxalYTUVF5Smx6O
+rFgVJM+SaLPFiJlWRLZ4dTnqmsmXZhppdezlhmzQL5FelBK+mAMxUtuNuKgmH+T
pLAG9H7cZq+j64R4kFeexzbaXS8iYOg9SsVhVsVwNeg1/2yh/qAKj+N78BNdlCSs
IF84rxJyeRThJk+leBjwBy2XkJvB9B0w/sDIvrgW6cFD78pYNi6atZcpPqZe9eT9
CbqEhQ3kJ3vy3tyB4FzcToDFkJtrcbX28Zqz01mO8ihIXIjUW1PLcnqdW9cXyI47
JzVb8/1PBW1KnGFIr8pYJk5YCtUCAwEAAaN7MHkwCQYDVR0TBAIwADAsBglghkgB
hvhCAQ0EHxYdT3BlblNTTCBHZW5lcmF0ZWQgQ2VydGlmaWNhdGUwHQYDVR0OBBYE
FLEEaFQJrWzT4gt0Lhhv4z+Pt9wgMB8GA1UdIwQYMBaAFPMlv8w6s0QSOm9AToqj
m1d+ttWRMA0GCSqGSIb3DQEBBQUAA4ICAQBSmIgfGdkf0KW8cqy6qdRka5PKTket
TsnhKwDLQJw1bKXAmdPY5qI4oPLfEEIMAH9AUyxvRRTdIO6GNLIULBaIZCg3uAS/
q2jF6USZbmylcX/qr0uCoToiQbfY6ejs5iE3IYLP1IT5o1SD14GbzfTaGP+8zJOO
Cylp/K4gnaAU0H2osCorsvXyj5IBHpvaVYZBkjfiN3CYeKZD01+HIP9s6df8vhVq
bK7JIEYHTez0H7oq9rXX5EV9d77t+JKg2sIySUrvkjO6cYViF8vweUcn4hb4Wh36
JjRxFQL06UR7y0ZFTBmNIGhabxmzHHe8m/iRsUNXdrUPb7eaSScamDlA95Ygn+6d
YEzGMRTbNi41OjnJAgF2VFzpHjv55MXSttaCtO4WykyWl6ZM7lZZqJ1LuNWqlOfx
HxR5OIbHK6Xu6He9oC0FsXwHjcvffKO4ZjkDDycT+CSOKRNcUnn6eQeYkrFpD3wI
3xAHIh3itwzk1m2Mo/kH2YXI3g1e45PbR63LPPIbgAvdWCqf2/GC9uFNM0zmmfOc
OaNakrUZRSCu00bXoZH4dSrSxIHyh8LaTJyseff7IxxESx4I7v81Gd6RyC+bpFer
98FecAFDA6zwowP6f0aNONNi2sfGIRGj1xcqiPiRT9K9Y99clCbF7thb5YjWurir
BuzDegHctQnfvg==
-----END CERTIFICATE-----
